; Function Attrs: nounwind uwtable
define internal fastcc void @PrintOutput(ptr noundef %0) unnamed_addr #0 {
  %2 = tail call ptr @N_VGetArrayPointer(ptr noundef %0) #6
  %3 = tail call i32 (ptr, ...) @printf(ptr noundef nonnull dereferenceable(1) @.str.18)
  br label %4

4:                                                ; preds = %1, %4
  %.016 = phi i32 [ 1, %1 ], [ %8, %4 ]
  %5 = uitofp nneg i32 %.016 to double
  %6 = fmul double %5, 3.125000e-02
  %7 = tail call i32 (ptr, ...) @printf(ptr noundef nonnull dereferenceable(1) @.str.19, double noundef %6)
  %8 = add nuw nsw i32 %.016, 3
  %9 = icmp samesign ult i32 %.016, 29
  br i1 %9, label %4, label %10

10:                                               ; preds = %4
  %puts = tail call i32 @puts(ptr nonnull dereferenceable(1) @str.4)
  %invariant.gep = getelementptr i8, ptr %2, i64 -256
  br label %11

11:                                               ; preds = %10, %20
  %indvars.iv20 = phi i64 [ 1, %10 ], [ %indvars.iv.next21, %20 ]
  %12 = trunc nuw nsw i64 %indvars.iv20 to i32
  %13 = uitofp nneg i32 %12 to double
  %14 = fmul double %13, 3.125000e-02
  %15 = tail call i32 (ptr, ...) @printf(ptr noundef nonnull dereferenceable(1) @.str.21, double noundef %14)
  %invariant.gep23 = getelementptr double, ptr %invariant.gep, i64 %indvars.iv20
  br label %16

16:                                               ; preds = %11, %16
  %indvars.iv = phi i64 [ 1, %11 ], [ %indvars.iv.next, %16 ]
  %.idx = mul nuw nsw i64 %indvars.iv, 248
  %gep24 = getelementptr i8, ptr %invariant.gep23, i64 %.idx
  %17 = load double, ptr %gep24, align 8, !tbaa !12
  %18 = tail call i32 (ptr, ...) @printf(ptr noundef nonnull dereferenceable(1) @.str.19, double noundef %17)
  %indvars.iv.next = add nuw nsw i64 %indvars.iv, 3
  %19 = icmp samesign ult i64 %indvars.iv, 29
  br i1 %19, label %16, label %20

20:                                               ; preds = %16
  %putchar = tail call i32 @putchar(i32 10)
  %indvars.iv.next21 = add nuw nsw i64 %indvars.iv20, 3
  %21 = icmp samesign ult i64 %indvars.iv20, 29
  br i1 %21, label %11, label %22

22:                                               ; preds = %20
  ret void
}